target datalayout = "e-m:e-p270:32:32-p271:32:32-p272:64:64-i64:64-i128:128-f80:128-n8:16:32:64-S128"
target triple = "x86_64-pc-linux-gnu"

%struct.Vec_Int_t_ = type { i32, i32, ptr }

; Function Attrs: nounwind uwtable
define internal void @Vec_IntWriteEntry(ptr noundef %0, i32 noundef %1, i32 noundef %2) #0 {
  %4 = alloca ptr, align 8
  %5 = alloca i32, align 4
  %6 = alloca i32, align 4
  store ptr %0, ptr %4, align 8
  store i32 %1, ptr %5, align 4
  store i32 %2, ptr %6, align 4
  %7 = load i32, ptr %6, align 4
  %8 = load ptr, ptr %4, align 8
  %9 = getelementptr inbounds %struct.Vec_Int_t_, ptr %8, i32 0, i32 2
  %10 = load ptr, ptr %9, align 8
  %11 = load i32, ptr %5, align 4
  %12 = sext i32 %11 to i64
  %13 = getelementptr inbounds i32, ptr %10, i64 %12
  store i32 %7, ptr %13, align 4
  ret void
}

; Function Attrs: nounwind uwtable
define internal i32 @Vec_IntEntry(ptr noundef %0, i32 noundef %1) #0 {
  %3 = alloca ptr, align 8
  %4 = alloca i32, align 4
  store ptr %0, ptr %3, align 8
  store i32 %1, ptr %4, align 4
  %5 = load ptr, ptr %3, align 8
  %6 = getelementptr inbounds %struct.Vec_Int_t_, ptr %5, i32 0, i32 2
  %7 = load ptr, ptr %6, align 8
  %8 = load i32, ptr %4, align 4
  %9 = sext i32 %8 to i64
  %10 = getelementptr inbounds i32, ptr %7, i64 %9
  %11 = load i32, ptr %10, align 4
  ret i32 %11
}

; Function Attrs: nounwind uwtable
define internal i32 @Vec_IntSize(ptr noundef %0) #0 {
  %2 = alloca ptr, align 8
  store ptr %0, ptr %2, align 8
  %3 = load ptr, ptr %2, align 8
  %4 = getelementptr inbounds %struct.Vec_Int_t_, ptr %3, i32 0, i32 1
  %5 = load i32, ptr %4, align 4
  ret i32 %5
}

; Function Attrs: nounwind uwtable
define i32 @Cba_BlastReduction(ptr noundef %0, ptr noundef %1, i32 noundef %2, i32 noundef %3) #0 {
  %5 = alloca i32, align 4
  %6 = alloca ptr, align 8
  %7 = alloca ptr, align 8
  %8 = alloca i32, align 4
  %9 = alloca i32, align 4
  %10 = alloca i32, align 4
  %11 = alloca i32, align 4
  %12 = alloca i32, align 4
  %13 = alloca i32, align 4
  %14 = alloca i32, align 4
  %15 = alloca i32, align 4
  store ptr %0, ptr %6, align 8
  store ptr %1, ptr %7, align 8
  store i32 %2, ptr %8, align 4
  store i32 %3, ptr %9, align 4
  %16 = load i32, ptr %9, align 4
  %17 = icmp eq i32 %16, 27
  br i1 %17, label %18, label %37

18:                                               ; preds = %4
  store i32 1, ptr %11, align 4
  store i32 0, ptr %10, align 4
  br label %19

19:                                               ; preds = %32, %18
  %20 = load i32, ptr %10, align 4
  %21 = load i32, ptr %8, align 4
  %22 = icmp slt i32 %20, %21
  br i1 %22, label %23, label %35

23:                                               ; preds = %19
  %24 = load ptr, ptr %6, align 8
  %25 = load i32, ptr %11, align 4
  %26 = load ptr, ptr %7, align 8
  %27 = load i32, ptr %10, align 4
  %28 = sext i32 %27 to i64
  %29 = getelementptr inbounds i32, ptr %26, i64 %28
  %30 = load i32, ptr %29, align 4
  %31 = call i32 @Gia_ManHashAnd(ptr noundef %24, i32 noundef %25, i32 noundef %30)
  store i32 %31, ptr %11, align 4
  br label %32

32:                                               ; preds = %23
  %33 = load i32, ptr %10, align 4
  %34 = add nsw i32 %33, 1
  store i32 %34, ptr %10, align 4
  br label %19, !llvm.loop !23

35:                                               ; preds = %19
  %36 = load i32, ptr %11, align 4
  store i32 %36, ptr %5, align 4
  br label %82

37:                                               ; preds = %4
  %38 = load i32, ptr %9, align 4
  %39 = icmp eq i32 %38, 29
  br i1 %39, label %40, label %59

40:                                               ; preds = %37
  store i32 0, ptr %13, align 4
  store i32 0, ptr %12, align 4
  br label %41

41:                                               ; preds = %54, %40
  %42 = load i32, ptr %12, align 4
  %43 = load i32, ptr %8, align 4
  %44 = icmp slt i32 %42, %43
  br i1 %44, label %45, label %57

45:                                               ; preds = %41
  %46 = load ptr, ptr %6, align 8
  %47 = load i32, ptr %13, align 4
  %48 = load ptr, ptr %7, align 8
  %49 = load i32, ptr %12, align 4
  %50 = sext i32 %49 to i64
  %51 = getelementptr inbounds i32, ptr %48, i64 %50
  %52 = load i32, ptr %51, align 4
  %53 = call i32 @Gia_ManHashOr(ptr noundef %46, i32 noundef %47, i32 noundef %52)
  store i32 %53, ptr %13, align 4
  br label %54

54:                                               ; preds = %45
  %55 = load i32, ptr %12, align 4
  %56 = add nsw i32 %55, 1
  store i32 %56, ptr %12, align 4
  br label %41, !llvm.loop !24

57:                                               ; preds = %41
  %58 = load i32, ptr %13, align 4
  store i32 %58, ptr %5, align 4
  br label %82

59:                                               ; preds = %37
  %60 = load i32, ptr %9, align 4
  %61 = icmp eq i32 %60, 31
  br i1 %61, label %62, label %81

62:                                               ; preds = %59
  store i32 0, ptr %15, align 4
  store i32 0, ptr %14, align 4
  br label %63

63:                                               ; preds = %76, %62
  %64 = load i32, ptr %14, align 4
  %65 = load i32, ptr %8, align 4
  %66 = icmp slt i32 %64, %65
  br i1 %66, label %67, label %79

67:                                               ; preds = %63
  %68 = load ptr, ptr %6, align 8
  %69 = load i32, ptr %15, align 4
  %70 = load ptr, ptr %7, align 8
  %71 = load i32, ptr %14, align 4
  %72 = sext i32 %71 to i64
  %73 = getelementptr inbounds i32, ptr %70, i64 %72
  %74 = load i32, ptr %73, align 4
  %75 = call i32 @Gia_ManHashXor(ptr noundef %68, i32 noundef %69, i32 noundef %74)
  store i32 %75, ptr %15, align 4
  br label %76

76:                                               ; preds = %67
  %77 = load i32, ptr %14, align 4
  %78 = add nsw i32 %77, 1
  store i32 %78, ptr %14, align 4
  br label %63, !llvm.loop !25

79:                                               ; preds = %63
  %80 = load i32, ptr %15, align 4
  store i32 %80, ptr %5, align 4
  br label %82

81:                                               ; preds = %59
  store i32 -1, ptr %5, align 4
  br label %82

82:                                               ; preds = %81, %79, %57, %35
  %83 = load i32, ptr %5, align 4
  ret i32 %83
}

; Function Attrs: nounwind uwtable
define void @Cba_BlastZeroCondition(ptr noundef %0, ptr noundef %1, i32 noundef %2, ptr noundef %3) #0 {
  %5 = alloca ptr, align 8
  %6 = alloca ptr, align 8
  %7 = alloca i32, align 4
  %8 = alloca ptr, align 8
  %9 = alloca i32, align 4
  %10 = alloca i32, align 4
  %11 = alloca i32, align 4
  store ptr %0, ptr %5, align 8
  store ptr %1, ptr %6, align 8
  store i32 %2, ptr %7, align 4
  store ptr %3, ptr %8, align 8
  %12 = load ptr, ptr %5, align 8
  %13 = load ptr, ptr %6, align 8
  %14 = load i32, ptr %7, align 4
  %15 = call i32 @Cba_BlastReduction(ptr noundef %12, ptr noundef %13, i32 noundef %14, i32 noundef 29)
  store i32 %15, ptr %11, align 4
  store i32 0, ptr %9, align 4
  br label %16

16:                                               ; preds = %34, %4
  %17 = load i32, ptr %9, align 4
  %18 = load ptr, ptr %8, align 8
  %19 = call i32 @Vec_IntSize(ptr noundef %18)
  %20 = icmp slt i32 %17, %19
  br i1 %20, label %21, label %25

21:                                               ; preds = %16
  %22 = load ptr, ptr %8, align 8
  %23 = load i32, ptr %9, align 4
  %24 = call i32 @Vec_IntEntry(ptr noundef %22, i32 noundef %23)
  store i32 %24, ptr %10, align 4
  br label %25

25:                                               ; preds = %21, %16
  %26 = phi i1 [ false, %16 ], [ true, %21 ]
  br i1 %26, label %27, label %37

27:                                               ; preds = %25
  %28 = load ptr, ptr %8, align 8
  %29 = load i32, ptr %9, align 4
  %30 = load ptr, ptr %5, align 8
  %31 = load i32, ptr %11, align 4
  %32 = load i32, ptr %10, align 4
  %33 = call i32 @Gia_ManHashAnd(ptr noundef %30, i32 noundef %31, i32 noundef %32)
  call void @Vec_IntWriteEntry(ptr noundef %28, i32 noundef %29, i32 noundef %33)
  br label %34

34:                                               ; preds = %27
  %35 = load i32, ptr %9, align 4
  %36 = add nsw i32 %35, 1
  store i32 %36, ptr %9, align 4
  br label %16, !llvm.loop !46

37:                                               ; preds = %25
  ret void
}