; Function Attrs: nounwind uwtable
define void @Cba_BlastZeroCondition(ptr noundef %0, ptr noundef readonly captures(none) %1, i32 noundef %2, ptr noundef readonly captures(none) %3) local_unnamed_addr #0 {
  %5 = icmp sgt i32 %2, 0
  br i1 %5, label %.lr.ph42.preheader.i, label %Cba_BlastReduction.exit

.lr.ph42.preheader.i:                             ; preds = %4
  %wide.trip.count56.i = zext nneg i32 %2 to i64
  br label %.lr.ph42.i

.lr.ph42.i:                                       ; preds = %.lr.ph42.i, %.lr.ph42.preheader.i
  %indvars.iv53.i = phi i64 [ 0, %.lr.ph42.preheader.i ], [ %indvars.iv.next54.i, %.lr.ph42.i ]
  %.02841.i = phi i32 [ 0, %.lr.ph42.preheader.i ], [ %8, %.lr.ph42.i ]
  %6 = getelementptr inbounds nuw i32, ptr %1, i64 %indvars.iv53.i
  %7 = load i32, ptr %6, align 4
  %8 = tail call i32 @Gia_ManHashOr(ptr noundef %0, i32 noundef %.02841.i, i32 noundef %7) #20
  %indvars.iv.next54.i = add nuw nsw i64 %indvars.iv53.i, 1
  %exitcond57.not.i = icmp eq i64 %indvars.iv.next54.i, %wide.trip.count56.i
  br i1 %exitcond57.not.i, label %Cba_BlastReduction.exit, label %.lr.ph42.i, !llvm.loop !24

Cba_BlastReduction.exit:                          ; preds = %.lr.ph42.i, %4
  %.032.i = phi i32 [ 0, %4 ], [ %8, %.lr.ph42.i ]
  %9 = getelementptr i8, ptr %3, i64 4
  %.val14 = load i32, ptr %9, align 4
  %10 = icmp sgt i32 %.val14, 0
  br i1 %10, label %.lr.ph, label %.critedge

.lr.ph:                                           ; preds = %Cba_BlastReduction.exit
  %11 = getelementptr i8, ptr %3, i64 8
  br label %12

12:                                               ; preds = %.lr.ph, %12
  %indvars.iv = phi i64 [ 0, %.lr.ph ], [ %indvars.iv.next, %12 ]
  %.val13 = load ptr, ptr %11, align 8
  %13 = getelementptr inbounds nuw i32, ptr %.val13, i64 %indvars.iv
  %14 = load i32, ptr %13, align 4
  %15 = tail call i32 @Gia_ManHashAnd(ptr noundef %0, i32 noundef %.032.i, i32 noundef %14) #20
  %.val12 = load ptr, ptr %11, align 8
  %16 = getelementptr inbounds nuw i32, ptr %.val12, i64 %indvars.iv
  store i32 %15, ptr %16, align 4
  %indvars.iv.next = add nuw nsw i64 %indvars.iv, 1
  %.val = load i32, ptr %9, align 4
  %17 = sext i32 %.val to i64
  %18 = icmp slt i64 %indvars.iv.next, %17
  br i1 %18, label %12, label %.critedge, !llvm.loop !46

.critedge:                                        ; preds = %12, %Cba_BlastReduction.exit
  ret void
}